; Function Attrs: uwtable
define hidden void @_ZThn120_N19OpenColorIO_v2_5dev17CTFReaderLut3DElt11endIndexMapEj(ptr noundef %0, i32 noundef %1) unnamed_addr #21 align 2 {
  %3 = getelementptr inbounds nuw i8, ptr %0, i64 32
  %4 = tail call noundef i64 @_ZNK19OpenColorIO_v2_5dev12IndexMapping12getDimensionEv(ptr noundef nonnull align 8 dereferenceable(88) %3)
  %5 = zext i32 %1 to i64
  %.not.i = icmp eq i64 %4, %5
  br i1 %.not.i, label %_ZN19OpenColorIO_v2_5dev17CTFReaderLut3DElt11endIndexMapEj.exit, label %6

6:                                                ; preds = %2
  %7 = getelementptr inbounds i8, ptr %0, i64 -120
  %8 = tail call noundef i64 @_ZNK19OpenColorIO_v2_5dev12IndexMapping12getDimensionEv(ptr noundef nonnull align 8 dereferenceable(88) %3)
  tail call fastcc void @_ZN19OpenColorIO_v2_5dev12_GLOBAL__N_16ThrowMIA10_cJmPKcjS4_EEEvRKNS_16XmlReaderElementERKT_DpT0_(ptr noundef nonnull align 8 dereferenceable(240) %7, i64 noundef %8, i32 noundef %1)
  br label %_ZN19OpenColorIO_v2_5dev17CTFReaderLut3DElt11endIndexMapEj.exit

_ZN19OpenColorIO_v2_5dev17CTFReaderLut3DElt11endIndexMapEj.exit: ; preds = %2, %6
  tail call void @_ZNK19OpenColorIO_v2_5dev12IndexMapping8validateEv(ptr noundef nonnull align 8 dereferenceable(88) %3)
  %9 = getelementptr inbounds nuw i8, ptr %0, i64 8
  store i8 1, ptr %9, align 8, !tbaa !1105
  ret void
}